; Function Attrs: mustprogress uwtable
define hidden noundef ptr @_ZN7datalog16relation_manager18mk_join_project_fnERKNS_13relation_baseES3_jPKjS5_jS5_b(ptr noundef nonnull align 8 dereferenceable(200) %0, ptr noundef nonnull align 8 dereferenceable(28) %1, ptr noundef nonnull align 8 dereferenceable(28) %2, i32 noundef %3, ptr noundef %4, ptr noundef %5, i32 noundef %6, ptr noundef %7, i1 noundef zeroext %8) local_unnamed_addr #4 align 2 personality ptr @__gxx_personality_v0 {
  %10 = getelementptr inbounds nuw i8, ptr %1, i64 8
  %11 = load ptr, ptr %10, align 8, !tbaa !426
  %12 = load ptr, ptr %11, align 8, !tbaa !3
  %13 = getelementptr inbounds nuw i8, ptr %12, i64 96
  %14 = load ptr, ptr %13, align 8
  %15 = tail call noundef ptr %14(ptr noundef nonnull align 8 dereferenceable(32) %11, ptr noundef nonnull align 8 dereferenceable(28) %1, ptr noundef nonnull align 8 dereferenceable(28) %2, i32 noundef %3, ptr noundef %4, ptr noundef %5, i32 noundef %6, ptr noundef %7)
  %.not = icmp eq ptr %15, null
  br i1 %.not, label %16, label %_ZN7datalog16relation_manager32default_relation_join_project_fnC2EPNS_17tr_infrastructureINS_15relation_traitsEE7join_fnEjPKj.exit

16:                                               ; preds = %9
  %17 = load ptr, ptr %10, align 8, !tbaa !426
  %18 = getelementptr inbounds nuw i8, ptr %2, i64 8
  %19 = load ptr, ptr %18, align 8, !tbaa !426
  %.not34 = icmp eq ptr %17, %19
  br i1 %.not34, label %.thread, label %20

20:                                               ; preds = %16
  %21 = load ptr, ptr %19, align 8, !tbaa !3
  %22 = getelementptr inbounds nuw i8, ptr %21, i64 96
  %23 = load ptr, ptr %22, align 8
  %24 = tail call noundef ptr %23(ptr noundef nonnull align 8 dereferenceable(32) %19, ptr noundef nonnull align 8 dereferenceable(28) %1, ptr noundef nonnull align 8 dereferenceable(28) %2, i32 noundef %3, ptr noundef %4, ptr noundef %5, i32 noundef %6, ptr noundef %7)
  %.not35 = icmp eq ptr %24, null
  br i1 %.not35, label %.thread, label %_ZN7datalog16relation_manager32default_relation_join_project_fnC2EPNS_17tr_infrastructureINS_15relation_traitsEE7join_fnEjPKj.exit

.thread:                                          ; preds = %16, %20
  %25 = tail call noundef ptr @_ZN7datalog16relation_manager10mk_join_fnERKNS_13relation_baseES3_jPKjS5_b(ptr noundef nonnull align 8 dereferenceable(200) %0, ptr noundef nonnull align 8 dereferenceable(28) %1, ptr noundef nonnull align 8 dereferenceable(28) %2, i32 noundef %3, ptr noundef %4, ptr noundef %5, i1 noundef zeroext %8)
  %.not36 = icmp eq ptr %25, null
  br i1 %.not36, label %_ZN7datalog16relation_manager32default_relation_join_project_fnC2EPNS_17tr_infrastructureINS_15relation_traitsEE7join_fnEjPKj.exit, label %26

26:                                               ; preds = %.thread
  %27 = tail call noalias noundef ptr @_ZN6memory8allocateEm(i64 noundef 32)
  store ptr getelementptr inbounds nuw inrange(-16, 24) (i8, ptr @_ZTVN7datalog16relation_manager32default_relation_join_project_fnE, i64 16), ptr %27, align 8, !tbaa !3
  %28 = getelementptr inbounds nuw i8, ptr %27, i64 8
  store ptr %25, ptr %28, align 8, !tbaa !440
  %29 = getelementptr inbounds nuw i8, ptr %27, i64 16
  %30 = getelementptr inbounds nuw i8, ptr %27, i64 24
  %.not.i.i.i = icmp eq i32 %6, 0
  tail call void @llvm.memset.p0.i64(ptr noundef nonnull align 8 dereferenceable(16) %29, i8 0, i64 16, i1 false)
  br i1 %.not.i.i.i, label %_ZN7datalog16relation_manager32default_relation_join_project_fnC2EPNS_17tr_infrastructureINS_15relation_traitsEE7join_fnEjPKj.exit, label %.lr.ph.preheader.i.i.i

.lr.ph.preheader.i.i.i:                           ; preds = %26
  %wide.trip.count.i.i.i = zext i32 %6 to i64
  br label %.lr.ph.i.i.i

.lr.ph.i.i.i:                                     ; preds = %_ZN6vectorIjLb0EjE9push_backERKj.exit.i.i.i, %.lr.ph.preheader.i.i.i
  %31 = phi ptr [ null, %.lr.ph.preheader.i.i.i ], [ %41, %_ZN6vectorIjLb0EjE9push_backERKj.exit.i.i.i ]
  %indvars.iv.i.i.i = phi i64 [ 0, %.lr.ph.preheader.i.i.i ], [ %indvars.iv.next.i.i.i, %_ZN6vectorIjLb0EjE9push_backERKj.exit.i.i.i ]
  %32 = getelementptr inbounds nuw i32, ptr %7, i64 %indvars.iv.i.i.i
  %33 = icmp eq ptr %31, null
  br i1 %33, label %40, label %34

34:                                               ; preds = %.lr.ph.i.i.i
  %35 = getelementptr inbounds i8, ptr %31, i64 -4
  %36 = load i32, ptr %35, align 4, !tbaa !34
  %37 = getelementptr inbounds i8, ptr %31, i64 -8
  %38 = load i32, ptr %37, align 4, !tbaa !34
  %39 = icmp eq i32 %36, %38
  br i1 %39, label %40, label %_ZN6vectorIjLb0EjE9push_backERKj.exit.i.i.i

40:                                               ; preds = %34, %.lr.ph.i.i.i
  invoke void @_ZN6vectorIjLb0EjE13expand_vectorEv(ptr noundef nonnull align 8 dereferenceable(8) %30)
          to label %.noexc.i unwind label %48

.noexc.i:                                         ; preds = %40
  %.pre.i.i.i.i = load ptr, ptr %30, align 8, !tbaa !433
  %.phi.trans.insert.i.i.i.i = getelementptr inbounds i8, ptr %.pre.i.i.i.i, i64 -4
  %.pre2.i.i.i.i = load i32, ptr %.phi.trans.insert.i.i.i.i, align 4, !tbaa !34
  br label %_ZN6vectorIjLb0EjE9push_backERKj.exit.i.i.i

_ZN6vectorIjLb0EjE9push_backERKj.exit.i.i.i:      ; preds = %.noexc.i, %34
  %41 = phi ptr [ %.pre.i.i.i.i, %.noexc.i ], [ %31, %34 ]
  %42 = phi i32 [ %.pre2.i.i.i.i, %.noexc.i ], [ %36, %34 ]
  %43 = getelementptr inbounds i8, ptr %41, i64 -4
  %44 = zext i32 %42 to i64
  %45 = getelementptr inbounds nuw i32, ptr %41, i64 %44
  %46 = load i32, ptr %32, align 4, !tbaa !34
  store i32 %46, ptr %45, align 4, !tbaa !34
  %47 = add i32 %42, 1
  store i32 %47, ptr %43, align 4, !tbaa !34
  %indvars.iv.next.i.i.i = add nuw nsw i64 %indvars.iv.i.i.i, 1
  %exitcond.not.i.i.i = icmp eq i64 %indvars.iv.next.i.i.i, %wide.trip.count.i.i.i
  br i1 %exitcond.not.i.i.i, label %_ZN7datalog16relation_manager32default_relation_join_project_fnC2EPNS_17tr_infrastructureINS_15relation_traitsEE7join_fnEjPKj.exit, label %.lr.ph.i.i.i, !llvm.loop !434

48:                                               ; preds = %40
  %49 = landingpad { ptr, i32 }
          cleanup
  tail call void @_ZN10scoped_ptrIN7datalog17tr_infrastructureINS0_15relation_traitsEE14transformer_fnEED2Ev(ptr noundef nonnull align 8 dereferenceable(8) %29) #27
  tail call void @_ZN10scoped_ptrIN7datalog17tr_infrastructureINS0_15relation_traitsEE7join_fnEED2Ev(ptr noundef nonnull align 8 dereferenceable(8) %28) #27
  resume { ptr, i32 } %49

_ZN7datalog16relation_manager32default_relation_join_project_fnC2EPNS_17tr_infrastructureINS_15relation_traitsEE7join_fnEjPKj.exit: ; preds = %_ZN6vectorIjLb0EjE9push_backERKj.exit.i.i.i, %9, %26, %.thread, %20
  %.1 = phi ptr [ %24, %20 ], [ null, %.thread ], [ %27, %26 ], [ %15, %9 ], [ %27, %_ZN6vectorIjLb0EjE9push_backERKj.exit.i.i.i ]
  ret ptr %.1
}